target datalayout = "e-m:e-p270:32:32-p271:32:32-p272:64:64-i64:64-i128:128-f80:128-n8:16:32:64-S128"
target triple = "x86_64-pc-linux-gnu"

%struct.lean_object = type { i32, i32 }

; Function Attrs: alwaysinline nounwind uwtable
define internal void @lean_dec_ref(ptr noundef %0) #1 {
  %2 = alloca ptr, align 8
  store ptr %0, ptr %2, align 8, !tbaa !8
  %3 = load ptr, ptr %2, align 8, !tbaa !8
  %4 = getelementptr inbounds nuw %struct.lean_object, ptr %3, i32 0, i32 0
  %5 = load i32, ptr %4, align 4, !tbaa !13
  %6 = icmp sgt i32 %5, 1
  %7 = zext i1 %6 to i32
  %8 = sext i32 %7 to i64
  %9 = call i64 @llvm.expect.i64(i64 %8, i64 1)
  %10 = icmp ne i64 %9, 0
  br i1 %10, label %11, label %16

11:                                               ; preds = %1
  %12 = load ptr, ptr %2, align 8, !tbaa !8
  %13 = getelementptr inbounds nuw %struct.lean_object, ptr %12, i32 0, i32 0
  %14 = load i32, ptr %13, align 4, !tbaa !13
  %15 = add i32 %14, -1
  store i32 %15, ptr %13, align 4, !tbaa !13
  br label %24

16:                                               ; preds = %1
  %17 = load ptr, ptr %2, align 8, !tbaa !8
  %18 = getelementptr inbounds nuw %struct.lean_object, ptr %17, i32 0, i32 0
  %19 = load i32, ptr %18, align 4, !tbaa !13
  %20 = icmp ne i32 %19, 0
  br i1 %20, label %21, label %23

21:                                               ; preds = %16
  %22 = load ptr, ptr %2, align 8, !tbaa !8
  call void @lean_dec_ref_cold(ptr noundef %22)
  br label %23

23:                                               ; preds = %21, %16
  br label %24

24:                                               ; preds = %23, %11
  ret void
}

; Function Attrs: alwaysinline nounwind uwtable
define internal zeroext i1 @lean_is_scalar(ptr noundef %0) #1 {
  %2 = alloca ptr, align 8
  store ptr %0, ptr %2, align 8, !tbaa !8
  %3 = load ptr, ptr %2, align 8, !tbaa !8
  %4 = ptrtoint ptr %3 to i64
  %5 = and i64 %4, 1
  %6 = icmp eq i64 %5, 1
  ret i1 %6
}

; Function Attrs: alwaysinline nounwind uwtable
define internal void @lean_dec(ptr noundef %0) #1 {
  %2 = alloca ptr, align 8
  store ptr %0, ptr %2, align 8, !tbaa !8
  %3 = load ptr, ptr %2, align 8, !tbaa !8
  %4 = call zeroext i1 @lean_is_scalar(ptr noundef %3)
  br i1 %4, label %7, label %5

5:                                                ; preds = %1
  %6 = load ptr, ptr %2, align 8, !tbaa !8
  call void @lean_dec_ref(ptr noundef %6)
  br label %7

7:                                                ; preds = %5, %1
  ret void
}

; Function Attrs: nounwind uwtable
define ptr @l___private_Lean_Meta_Tactic_Grind_Split_0__Lean_Meta_Grind_checkConjunctStatus___boxed(ptr noundef %0, ptr noundef %1, ptr noundef %2, ptr noundef %3, ptr noundef %4, ptr noundef %5, ptr noundef %6, ptr noundef %7, ptr noundef %8, ptr noundef %9, ptr noundef %10, ptr noundef %11) #2 {
  %13 = alloca ptr, align 8
  %14 = alloca ptr, align 8
  %15 = alloca ptr, align 8
  %16 = alloca ptr, align 8
  %17 = alloca ptr, align 8
  %18 = alloca ptr, align 8
  %19 = alloca ptr, align 8
  %20 = alloca ptr, align 8
  %21 = alloca ptr, align 8
  %22 = alloca ptr, align 8
  %23 = alloca ptr, align 8
  %24 = alloca ptr, align 8
  %25 = alloca ptr, align 8
  store ptr %0, ptr %13, align 8, !tbaa !8
  store ptr %1, ptr %14, align 8, !tbaa !8
  store ptr %2, ptr %15, align 8, !tbaa !8
  store ptr %3, ptr %16, align 8, !tbaa !8
  store ptr %4, ptr %17, align 8, !tbaa !8
  store ptr %5, ptr %18, align 8, !tbaa !8
  store ptr %6, ptr %19, align 8, !tbaa !8
  store ptr %7, ptr %20, align 8, !tbaa !8
  store ptr %8, ptr %21, align 8, !tbaa !8
  store ptr %9, ptr %22, align 8, !tbaa !8
  store ptr %10, ptr %23, align 8, !tbaa !8
  store ptr %11, ptr %24, align 8, !tbaa !8
  br label %26

26:                                               ; preds = %12
  call void @llvm.lifetime.start.p0(i64 8, ptr %25) #7
  %27 = load ptr, ptr %13, align 8, !tbaa !8
  %28 = load ptr, ptr %14, align 8, !tbaa !8
  %29 = load ptr, ptr %15, align 8, !tbaa !8
  %30 = load ptr, ptr %16, align 8, !tbaa !8
  %31 = load ptr, ptr %17, align 8, !tbaa !8
  %32 = load ptr, ptr %18, align 8, !tbaa !8
  %33 = load ptr, ptr %19, align 8, !tbaa !8
  %34 = load ptr, ptr %20, align 8, !tbaa !8
  %35 = load ptr, ptr %21, align 8, !tbaa !8
  %36 = load ptr, ptr %22, align 8, !tbaa !8
  %37 = load ptr, ptr %23, align 8, !tbaa !8
  %38 = load ptr, ptr %24, align 8, !tbaa !8
  %39 = call ptr @l___private_Lean_Meta_Tactic_Grind_Split_0__Lean_Meta_Grind_checkConjunctStatus(ptr noundef %27, ptr noundef %28, ptr noundef %29, ptr noundef %30, ptr noundef %31, ptr noundef %32, ptr noundef %33, ptr noundef %34, ptr noundef %35, ptr noundef %36, ptr noundef %37, ptr noundef %38)
  store ptr %39, ptr %25, align 8, !tbaa !8
  %40 = load ptr, ptr %23, align 8, !tbaa !8
  call void @lean_dec(ptr noundef %40)
  %41 = load ptr, ptr %22, align 8, !tbaa !8
  call void @lean_dec(ptr noundef %41)
  %42 = load ptr, ptr %21, align 8, !tbaa !8
  call void @lean_dec(ptr noundef %42)
  %43 = load ptr, ptr %20, align 8, !tbaa !8
  call void @lean_dec(ptr noundef %43)
  %44 = load ptr, ptr %19, align 8, !tbaa !8
  call void @lean_dec(ptr noundef %44)
  %45 = load ptr, ptr %18, align 8, !tbaa !8
  call void @lean_dec(ptr noundef %45)
  %46 = load ptr, ptr %17, align 8, !tbaa !8
  call void @lean_dec(ptr noundef %46)
  %47 = load ptr, ptr %16, align 8, !tbaa !8
  call void @lean_dec(ptr noundef %47)
  %48 = load ptr, ptr %25, align 8, !tbaa !8
  call void @llvm.lifetime.end.p0(i64 8, ptr %25) #7
  ret ptr %48
}